target datalayout = "e-m:e-p270:32:32-p271:32:32-p272:64:64-i64:64-i128:128-f80:128-n8:16:32:64-S128"
target triple = "x86_64-pc-linux-gnu"

%struct.Vec_Int_t_ = type { i32, i32, ptr }
%struct.Gia_Man_t_ = type { ptr, ptr, i32, i32, i32, i32, ptr, ptr, i32, i32, i32, ptr, ptr, %struct.Vec_Int_t_, %struct.Vec_Int_t_, i32, i32, i32, %struct.Vec_Int_t_, ptr, ptr, ptr, i32, i32, i32, i32, ptr, ptr, ptr, ptr, ptr, i32, i32, ptr, i32, ptr, ptr, ptr, ptr, ptr, ptr, ptr, ptr, ptr, ptr, ptr, ptr, ptr, ptr, ptr, ptr, ptr, ptr, %struct.Vec_Int_t_, %struct.Vec_Int_t_, ptr, ptr, ptr, ptr, ptr, ptr, ptr, ptr, ptr, ptr, ptr, ptr, ptr, ptr, ptr, ptr, ptr, ptr, ptr, ptr, ptr, i32, float, float, ptr, ptr, i32, ptr, ptr, ptr, ptr, ptr, ptr, ptr, ptr, ptr, ptr, ptr, ptr, ptr, ptr, ptr, i64, i64, ptr, ptr, i32, i32, i32, i32, i32, i32, i32, i32, i32, i32, i32, i32, ptr, ptr, ptr, ptr, ptr, ptr, ptr, ptr, i32, i32, i32, ptr, i32, i32, ptr, ptr, ptr, ptr, ptr, ptr, i32, i32, ptr, %struct.Vec_Int_t_, %struct.Vec_Int_t_, %struct.Vec_Int_t_, ptr, ptr, ptr, i32, i32, i32, i32, ptr, ptr, ptr, ptr, ptr }
%struct.Gia_Obj_t_ = type <{ i64, i32 }>
%struct.Vec_Wrd_t_ = type { i32, i32, ptr }

; Function Attrs: inlinehint nounwind uwtable
define internal ptr @Vec_WrdEntryP(ptr noundef %0, i32 noundef %1) #1 {
  %3 = alloca ptr, align 8
  %4 = alloca i32, align 4
  store ptr %0, ptr %3, align 8, !tbaa !122
  store i32 %1, ptr %4, align 4, !tbaa !8
  %5 = load ptr, ptr %3, align 8, !tbaa !122
  %6 = getelementptr inbounds nuw %struct.Vec_Wrd_t_, ptr %5, i32 0, i32 2
  %7 = load ptr, ptr %6, align 8, !tbaa !127
  %8 = load i32, ptr %4, align 4, !tbaa !8
  %9 = sext i32 %8 to i64
  %10 = getelementptr inbounds i64, ptr %7, i64 %9
  ret ptr %10
}

; Function Attrs: inlinehint nounwind uwtable
define internal void @Abc_TtXorBit(ptr noundef %0, i32 noundef %1) #1 {
  %3 = alloca ptr, align 8
  %4 = alloca i32, align 4
  store ptr %0, ptr %3, align 8, !tbaa !129
  store i32 %1, ptr %4, align 4, !tbaa !8
  %5 = load i32, ptr %4, align 4, !tbaa !8
  %6 = and i32 %5, 63
  %7 = zext i32 %6 to i64
  %8 = shl i64 1, %7
  %9 = load ptr, ptr %3, align 8, !tbaa !129
  %10 = load i32, ptr %4, align 4, !tbaa !8
  %11 = ashr i32 %10, 6
  %12 = sext i32 %11 to i64
  %13 = getelementptr inbounds i64, ptr %9, i64 %12
  %14 = load i64, ptr %13, align 8, !tbaa !29
  %15 = xor i64 %14, %8
  store i64 %15, ptr %13, align 8, !tbaa !29
  ret void
}

; Function Attrs: inlinehint nounwind uwtable
define internal i32 @Abc_LitIsCompl(i32 noundef %0) #1 {
  %2 = alloca i32, align 4
  store i32 %0, ptr %2, align 4, !tbaa !8
  %3 = load i32, ptr %2, align 4, !tbaa !8
  %4 = and i32 %3, 1
  ret i32 %4
}

; Function Attrs: inlinehint nounwind uwtable
define internal i32 @Abc_TtGetBit(ptr noundef %0, i32 noundef %1) #1 {
  %3 = alloca ptr, align 8
  %4 = alloca i32, align 4
  store ptr %0, ptr %3, align 8, !tbaa !129
  store i32 %1, ptr %4, align 4, !tbaa !8
  %5 = load ptr, ptr %3, align 8, !tbaa !129
  %6 = load i32, ptr %4, align 4, !tbaa !8
  %7 = ashr i32 %6, 6
  %8 = sext i32 %7 to i64
  %9 = getelementptr inbounds i64, ptr %5, i64 %8
  %10 = load i64, ptr %9, align 8, !tbaa !29
  %11 = load i32, ptr %4, align 4, !tbaa !8
  %12 = and i32 %11, 63
  %13 = zext i32 %12 to i64
  %14 = lshr i64 %10, %13
  %15 = trunc i64 %14 to i32
  %16 = and i32 %15, 1
  ret i32 %16
}

; Function Attrs: inlinehint nounwind uwtable
define internal void @Vec_IntWriteEntry(ptr noundef %0, i32 noundef %1, i32 noundef %2) #1 {
  %4 = alloca ptr, align 8
  %5 = alloca i32, align 4
  %6 = alloca i32, align 4
  store ptr %0, ptr %4, align 8, !tbaa !22
  store i32 %1, ptr %5, align 4, !tbaa !8
  store i32 %2, ptr %6, align 4, !tbaa !8
  %7 = load i32, ptr %6, align 4, !tbaa !8
  %8 = load ptr, ptr %4, align 8, !tbaa !22
  %9 = getelementptr inbounds nuw %struct.Vec_Int_t_, ptr %8, i32 0, i32 2
  %10 = load ptr, ptr %9, align 8, !tbaa !26
  %11 = load i32, ptr %5, align 4, !tbaa !8
  %12 = sext i32 %11 to i64
  %13 = getelementptr inbounds i32, ptr %10, i64 %12
  store i32 %7, ptr %13, align 4, !tbaa !8
  ret void
}

; Function Attrs: inlinehint nounwind uwtable
define internal i32 @Gia_ObjIsAnd(ptr noundef %0) #1 {
  %2 = alloca ptr, align 8
  store ptr %0, ptr %2, align 8, !tbaa !20
  %3 = load ptr, ptr %2, align 8, !tbaa !20
  %4 = load i64, ptr %3, align 4
  %5 = lshr i64 %4, 31
  %6 = and i64 %5, 1
  %7 = trunc i64 %6 to i32
  %8 = icmp ne i32 %7, 0
  br i1 %8, label %15, label %9

9:                                                ; preds = %1
  %10 = load ptr, ptr %2, align 8, !tbaa !20
  %11 = load i64, ptr %10, align 4
  %12 = and i64 %11, 536870911
  %13 = trunc i64 %12 to i32
  %14 = icmp ne i32 %13, 536870911
  br label %15

15:                                               ; preds = %9, %1
  %16 = phi i1 [ false, %1 ], [ %14, %9 ]
  %17 = zext i1 %16 to i32
  ret i32 %17
}

; Function Attrs: inlinehint nounwind uwtable
define internal ptr @Gia_ManObj(ptr noundef %0, i32 noundef %1) #1 {
  %3 = alloca ptr, align 8
  %4 = alloca i32, align 4
  store ptr %0, ptr %3, align 8, !tbaa !19
  store i32 %1, ptr %4, align 4, !tbaa !8
  %5 = load ptr, ptr %3, align 8, !tbaa !19
  %6 = getelementptr inbounds nuw %struct.Gia_Man_t_, ptr %5, i32 0, i32 6
  %7 = load ptr, ptr %6, align 8, !tbaa !51
  %8 = load i32, ptr %4, align 4, !tbaa !8
  %9 = sext i32 %8 to i64
  %10 = getelementptr inbounds %struct.Gia_Obj_t_, ptr %7, i64 %9
  ret ptr %10
}

; Function Attrs: inlinehint nounwind uwtable
define internal ptr @Gia_ManBuiltInData(ptr noundef %0, i32 noundef %1) #1 {
  %3 = alloca ptr, align 8
  %4 = alloca i32, align 4
  store ptr %0, ptr %3, align 8, !tbaa !19
  store i32 %1, ptr %4, align 4, !tbaa !8
  %5 = load ptr, ptr %3, align 8, !tbaa !19
  %6 = getelementptr inbounds nuw %struct.Gia_Man_t_, ptr %5, i32 0, i32 113
  %7 = load ptr, ptr %6, align 8, !tbaa !119
  %8 = load ptr, ptr %3, align 8, !tbaa !19
  %9 = getelementptr inbounds nuw %struct.Gia_Man_t_, ptr %8, i32 0, i32 109
  %10 = load i32, ptr %9, align 8, !tbaa !116
  %11 = load i32, ptr %4, align 4, !tbaa !8
  %12 = mul nsw i32 %10, %11
  %13 = call ptr @Vec_WrdEntryP(ptr noundef %7, i32 noundef %12)
  ret ptr %13
}

; Function Attrs: inlinehint nounwind uwtable
define internal i32 @Abc_Lit2Var(i32 noundef %0) #1 {
  %2 = alloca i32, align 4
  store i32 %0, ptr %2, align 4, !tbaa !8
  %3 = load i32, ptr %2, align 4, !tbaa !8
  %4 = ashr i32 %3, 1
  ret i32 %4
}

; Function Attrs: inlinehint nounwind uwtable
define internal i32 @Vec_IntEntry(ptr noundef %0, i32 noundef %1) #1 {
  %3 = alloca ptr, align 8
  %4 = alloca i32, align 4
  store ptr %0, ptr %3, align 8, !tbaa !22
  store i32 %1, ptr %4, align 4, !tbaa !8
  %5 = load ptr, ptr %3, align 8, !tbaa !22
  %6 = getelementptr inbounds nuw %struct.Vec_Int_t_, ptr %5, i32 0, i32 2
  %7 = load ptr, ptr %6, align 8, !tbaa !26
  %8 = load i32, ptr %4, align 4, !tbaa !8
  %9 = sext i32 %8 to i64
  %10 = getelementptr inbounds i32, ptr %7, i64 %9
  %11 = load i32, ptr %10, align 4, !tbaa !8
  ret i32 %11
}

; Function Attrs: inlinehint nounwind uwtable
define internal i32 @Vec_IntSize(ptr noundef %0) #1 {
  %2 = alloca ptr, align 8
  store ptr %0, ptr %2, align 8, !tbaa !22
  %3 = load ptr, ptr %2, align 8, !tbaa !22
  %4 = getelementptr inbounds nuw %struct.Vec_Int_t_, ptr %3, i32 0, i32 1
  %5 = load i32, ptr %4, align 4, !tbaa !23
  ret i32 %5
}

; Function Attrs: nounwind uwtable
define void @Gia_ManIncrSimSet(ptr noundef %0, ptr noundef %1) #0 {
  %3 = alloca ptr, align 8
  %4 = alloca ptr, align 8
  %5 = alloca i32, align 4
  %6 = alloca i32, align 4
  %7 = alloca ptr, align 8
  %8 = alloca i32, align 4
  store ptr %0, ptr %3, align 8, !tbaa !19
  store ptr %1, ptr %4, align 8, !tbaa !22
  call void @llvm.lifetime.start.p0(i64 4, ptr %5) #11
  call void @llvm.lifetime.start.p0(i64 4, ptr %6) #11
  %9 = load ptr, ptr %3, align 8, !tbaa !19
  %10 = getelementptr inbounds nuw %struct.Gia_Man_t_, ptr %9, i32 0, i32 123
  %11 = load i32, ptr %10, align 8, !tbaa !161
  %12 = add nsw i32 %11, 1
  store i32 %12, ptr %10, align 8, !tbaa !161
  store i32 0, ptr %5, align 4, !tbaa !8
  br label %13

13:                                               ; preds = %62, %2
  %14 = load i32, ptr %5, align 4, !tbaa !8
  %15 = load ptr, ptr %4, align 8, !tbaa !22
  %16 = call i32 @Vec_IntSize(ptr noundef %15)
  %17 = icmp slt i32 %14, %16
  br i1 %17, label %18, label %22

18:                                               ; preds = %13
  %19 = load ptr, ptr %4, align 8, !tbaa !22
  %20 = load i32, ptr %5, align 4, !tbaa !8
  %21 = call i32 @Vec_IntEntry(ptr noundef %19, i32 noundef %20)
  store i32 %21, ptr %6, align 4, !tbaa !8
  br label %22

22:                                               ; preds = %18, %13
  %23 = phi i1 [ false, %13 ], [ true, %18 ]
  br i1 %23, label %24, label %65

24:                                               ; preds = %22
  call void @llvm.lifetime.start.p0(i64 8, ptr %7) #11
  %25 = load ptr, ptr %3, align 8, !tbaa !19
  %26 = load i32, ptr %6, align 4, !tbaa !8
  %27 = call i32 @Abc_Lit2Var(i32 noundef %26)
  %28 = call ptr @Gia_ManBuiltInData(ptr noundef %25, i32 noundef %27)
  store ptr %28, ptr %7, align 8, !tbaa !129
  %29 = load ptr, ptr %3, align 8, !tbaa !19
  %30 = load i32, ptr %6, align 4, !tbaa !8
  %31 = call i32 @Abc_Lit2Var(i32 noundef %30)
  %32 = call ptr @Gia_ManObj(ptr noundef %29, i32 noundef %31)
  %33 = call i32 @Gia_ObjIsAnd(ptr noundef %32)
  %34 = icmp ne i32 %33, 0
  br i1 %34, label %35, label %36

35:                                               ; preds = %24
  store i32 4, ptr %8, align 4
  br label %59

36:                                               ; preds = %24
  %37 = load ptr, ptr %3, align 8, !tbaa !19
  %38 = getelementptr inbounds nuw %struct.Gia_Man_t_, ptr %37, i32 0, i32 124
  %39 = load ptr, ptr %38, align 8, !tbaa !154
  %40 = load i32, ptr %6, align 4, !tbaa !8
  %41 = call i32 @Abc_Lit2Var(i32 noundef %40)
  %42 = load ptr, ptr %3, align 8, !tbaa !19
  %43 = getelementptr inbounds nuw %struct.Gia_Man_t_, ptr %42, i32 0, i32 123
  %44 = load i32, ptr %43, align 8, !tbaa !161
  call void @Vec_IntWriteEntry(ptr noundef %39, i32 noundef %41, i32 noundef %44)
  %45 = load ptr, ptr %7, align 8, !tbaa !129
  %46 = load ptr, ptr %3, align 8, !tbaa !19
  %47 = getelementptr inbounds nuw %struct.Gia_Man_t_, ptr %46, i32 0, i32 108
  %48 = load i32, ptr %47, align 4, !tbaa !114
  %49 = call i32 @Abc_TtGetBit(ptr noundef %45, i32 noundef %48)
  %50 = load i32, ptr %6, align 4, !tbaa !8
  %51 = call i32 @Abc_LitIsCompl(i32 noundef %50)
  %52 = icmp eq i32 %49, %51
  br i1 %52, label %53, label %58

53:                                               ; preds = %36
  %54 = load ptr, ptr %7, align 8, !tbaa !129
  %55 = load ptr, ptr %3, align 8, !tbaa !19
  %56 = getelementptr inbounds nuw %struct.Gia_Man_t_, ptr %55, i32 0, i32 108
  %57 = load i32, ptr %56, align 4, !tbaa !114
  call void @Abc_TtXorBit(ptr noundef %54, i32 noundef %57)
  br label %58

58:                                               ; preds = %53, %36
  store i32 0, ptr %8, align 4
  br label %59

59:                                               ; preds = %58, %35
  call void @llvm.lifetime.end.p0(i64 8, ptr %7) #11
  %60 = load i32, ptr %8, align 4
  switch i32 %60, label %85 [
    i32 0, label %61
    i32 4, label %62
  ]

61:                                               ; preds = %59
  br label %62

62:                                               ; preds = %61, %59
  %63 = load i32, ptr %5, align 4, !tbaa !8
  %64 = add nsw i32 %63, 1
  store i32 %64, ptr %5, align 4, !tbaa !8
  br label %13, !llvm.loop !164

65:                                               ; preds = %22
  %66 = load ptr, ptr %3, align 8, !tbaa !19
  %67 = getelementptr inbounds nuw %struct.Gia_Man_t_, ptr %66, i32 0, i32 108
  %68 = load i32, ptr %67, align 4, !tbaa !114
  %69 = load ptr, ptr %3, align 8, !tbaa !19
  %70 = getelementptr inbounds nuw %struct.Gia_Man_t_, ptr %69, i32 0, i32 109
  %71 = load i32, ptr %70, align 8, !tbaa !116
  %72 = mul nsw i32 %71, 64
  %73 = sub nsw i32 %72, 1
  %74 = icmp eq i32 %68, %73
  br i1 %74, label %75, label %76

75:                                               ; preds = %65
  br label %81

76:                                               ; preds = %65
  %77 = load ptr, ptr %3, align 8, !tbaa !19
  %78 = getelementptr inbounds nuw %struct.Gia_Man_t_, ptr %77, i32 0, i32 108
  %79 = load i32, ptr %78, align 4, !tbaa !114
  %80 = add nsw i32 %79, 1
  br label %81

81:                                               ; preds = %76, %75
  %82 = phi i32 [ 0, %75 ], [ %80, %76 ]
  %83 = load ptr, ptr %3, align 8, !tbaa !19
  %84 = getelementptr inbounds nuw %struct.Gia_Man_t_, ptr %83, i32 0, i32 108
  store i32 %82, ptr %84, align 4, !tbaa !114
  call void @llvm.lifetime.end.p0(i64 4, ptr %6) #11
  call void @llvm.lifetime.end.p0(i64 4, ptr %5) #11
  ret void

85:                                               ; preds = %59
  unreachable
}