; Function Attrs: nofree norecurse nosync nounwind memory(readwrite, inaccessiblemem: none) uwtable
define void @Gia_ManIncrSimSet(ptr noundef captures(none) %0, ptr noundef readonly captures(none) %1) local_unnamed_addr #10 {
  %3 = getelementptr inbounds nuw i8, ptr %0, i64 904
  %4 = load i32, ptr %3, align 8, !tbaa !156
  %5 = add nsw i32 %4, 1
  store i32 %5, ptr %3, align 8, !tbaa !156
  %6 = getelementptr i8, ptr %1, i64 4
  %.val29 = load i32, ptr %6, align 4, !tbaa !34
  %7 = icmp sgt i32 %.val29, 0
  br i1 %7, label %.lr.ph, label %.critedge

.lr.ph:                                           ; preds = %2
  %8 = getelementptr i8, ptr %1, i64 8
  %.val22 = load ptr, ptr %8, align 8, !tbaa !36
  %9 = getelementptr i8, ptr %0, i64 32
  %.val23 = load ptr, ptr %9, align 8, !tbaa !16
  %10 = getelementptr i8, ptr %0, i64 832
  %11 = getelementptr i8, ptr %0, i64 816
  %12 = getelementptr inbounds nuw i8, ptr %0, i64 912
  %13 = getelementptr inbounds nuw i8, ptr %0, i64 812
  br label %14

14:                                               ; preds = %.lr.ph, %46
  %indvars.iv = phi i64 [ 0, %.lr.ph ], [ %indvars.iv.next, %46 ]
  %15 = getelementptr inbounds nuw i32, ptr %.val22, i64 %indvars.iv
  %16 = load i32, ptr %15, align 4, !tbaa !37
  %17 = ashr i32 %16, 1
  %18 = sext i32 %17 to i64
  %19 = getelementptr inbounds %struct.Gia_Obj_t_, ptr %.val23, i64 %18
  %.val25 = load i64, ptr %19, align 4
  %20 = and i64 %.val25, 2147483648
  %.not.i = icmp ne i64 %20, 0
  %21 = and i64 %.val25, 536870911
  %22 = icmp eq i64 %21, 536870911
  %narrow.i.not = or i1 %.not.i, %22
  br i1 %narrow.i.not, label %23, label %46

23:                                               ; preds = %14
  %.val27 = load ptr, ptr %10, align 8, !tbaa !123
  %24 = getelementptr i8, ptr %.val27, i64 8
  %.val27.val = load ptr, ptr %24, align 8, !tbaa !119
  %.val26 = load i32, ptr %11, align 8, !tbaa !114
  %25 = mul nsw i32 %.val26, %17
  %26 = sext i32 %25 to i64
  %27 = getelementptr inbounds i64, ptr %.val27.val, i64 %26
  %28 = load ptr, ptr %12, align 8, !tbaa !151
  %29 = getelementptr i8, ptr %28, i64 8
  %.val24 = load ptr, ptr %29, align 8, !tbaa !36
  %30 = getelementptr inbounds i32, ptr %.val24, i64 %18
  store i32 %5, ptr %30, align 4, !tbaa !37
  %31 = load i32, ptr %13, align 4, !tbaa !112
  %32 = ashr i32 %31, 6
  %33 = sext i32 %32 to i64
  %34 = getelementptr inbounds i64, ptr %27, i64 %33
  %35 = load i64, ptr %34, align 8, !tbaa !121
  %36 = and i32 %31, 63
  %37 = zext nneg i32 %36 to i64
  %38 = lshr i64 %35, %37
  %39 = trunc i64 %38 to i32
  %40 = xor i32 %16, %39
  %41 = and i32 %40, 1
  %42 = icmp eq i32 %41, 0
  br i1 %42, label %43, label %46

43:                                               ; preds = %23
  %44 = shl nuw i64 1, %37
  %45 = xor i64 %44, %35
  store i64 %45, ptr %34, align 8, !tbaa !121
  br label %46

46:                                               ; preds = %23, %43, %14
  %indvars.iv.next = add nuw nsw i64 %indvars.iv, 1
  %.val = load i32, ptr %6, align 4, !tbaa !34
  %47 = sext i32 %.val to i64
  %48 = icmp slt i64 %indvars.iv.next, %47
  br i1 %48, label %14, label %.critedge, !llvm.loop !158

.critedge:                                        ; preds = %46, %2
  %49 = getelementptr inbounds nuw i8, ptr %0, i64 812
  %50 = load i32, ptr %49, align 4, !tbaa !112
  %51 = getelementptr inbounds nuw i8, ptr %0, i64 816
  %52 = load i32, ptr %51, align 8, !tbaa !114
  %53 = shl nsw i32 %52, 6
  %54 = add nsw i32 %53, -1
  %55 = icmp eq i32 %50, %54
  %56 = add nsw i32 %50, 1
  %spec.select = select i1 %55, i32 0, i32 %56
  store i32 %spec.select, ptr %49, align 4, !tbaa !112
  ret void
}